(dp0
S'equipe1'
p1
(dp2
S'messages'
p3
(lp4
sS'names'
p5
(dp6
S'Michel'
p7
(S'46.16'
p8
S'-1.15'
p9
tp10
ssS'nextgoal'
p11
I0
ssS'equipe2'
p12
(dp13
g3
(lp14
sg5
(dp15
S'Arnaud'
p16
(S'46.18'
p17
S'-1.15'
p18
tp19
ssg11
I0
ss.